target datalayout = "e-m:e-p270:32:32-p271:32:32-p272:64:64-i64:64-i128:128-f80:128-n8:16:32:64-S128"
target triple = "x86_64-pc-linux-gnu"

%struct.FT_ListRec_ = type { ptr, ptr }
%struct.FT_CharMapRec_ = type { ptr, i32, i16, i16 }
%struct.T42_FaceRec_ = type { %struct.FT_FaceRec_, %struct.T1_FontRec_, ptr, ptr, ptr, i64, ptr, [2 x %struct.FT_CharMapRec_], [2 x ptr], %struct.PS_UnicodesRec_ }
%struct.FT_FaceRec_ = type { i64, i64, i64, i64, i64, ptr, ptr, i32, ptr, i32, ptr, %struct.FT_Generic_, %struct.FT_BBox_, i16, i16, i16, i16, i16, i16, i16, i16, ptr, ptr, ptr, ptr, ptr, ptr, %struct.FT_ListRec_, %struct.FT_Generic_, ptr, ptr }
%struct.FT_BBox_ = type { i64, i64, i64, i64 }
%struct.FT_Generic_ = type { ptr, ptr }
%struct.T1_FontRec_ = type { %struct.PS_FontInfoRec_, %struct.PS_FontExtraRec_, %struct.PS_PrivateRec_, ptr, i32, %struct.T1_EncodingRecRec_, ptr, ptr, ptr, i32, ptr, ptr, ptr, i32, ptr, ptr, ptr, i8, i8, %struct.FT_Matrix_, %struct.FT_Vector_, %struct.FT_BBox_, i64, i64 }
%struct.PS_FontInfoRec_ = type { ptr, ptr, ptr, ptr, ptr, i64, i8, i16, i16 }
%struct.PS_FontExtraRec_ = type { i16 }
%struct.PS_PrivateRec_ = type { i32, i32, i8, i8, i8, i8, [14 x i16], [10 x i16], [14 x i16], [10 x i16], i64, i32, i32, [1 x i16], [1 x i16], i8, i8, i8, i8, [13 x i16], [13 x i16], i64, i64, i64, [2 x i16] }
%struct.T1_EncodingRecRec_ = type { i32, i32, i32, ptr, ptr }
%struct.FT_Matrix_ = type { i64, i64, i64, i64 }
%struct.FT_Vector_ = type { i64, i64 }
%struct.PS_UnicodesRec_ = type { %struct.FT_CMapRec_, i32, ptr }
%struct.FT_CMapRec_ = type { %struct.FT_CharMapRec_, ptr }

; Function Attrs: nounwind uwtable
define internal void @T42_Face_Done(ptr noundef %0) #0 {
  %2 = alloca ptr, align 8
  %3 = alloca ptr, align 8
  %4 = alloca ptr, align 8
  %5 = alloca ptr, align 8
  %6 = alloca ptr, align 8
  %7 = alloca i32, align 4
  store ptr %0, ptr %2, align 8, !tbaa !27
  call void @llvm.lifetime.start.p0(i64 8, ptr %3) #7
  %8 = load ptr, ptr %2, align 8, !tbaa !27
  store ptr %8, ptr %3, align 8, !tbaa !33
  call void @llvm.lifetime.start.p0(i64 8, ptr %4) #7
  call void @llvm.lifetime.start.p0(i64 8, ptr %5) #7
  call void @llvm.lifetime.start.p0(i64 8, ptr %6) #7
  %9 = load ptr, ptr %3, align 8, !tbaa !33
  %10 = icmp ne ptr %9, null
  br i1 %10, label %12, label %11

11:                                               ; preds = %1
  store i32 1, ptr %7, align 4
  br label %181

12:                                               ; preds = %1
  %13 = load ptr, ptr %3, align 8, !tbaa !33
  %14 = getelementptr inbounds nuw %struct.T42_FaceRec_, ptr %13, i32 0, i32 1
  store ptr %14, ptr %4, align 8, !tbaa !35
  %15 = load ptr, ptr %4, align 8, !tbaa !35
  %16 = getelementptr inbounds nuw %struct.T1_FontRec_, ptr %15, i32 0, i32 0
  store ptr %16, ptr %5, align 8, !tbaa !37
  %17 = load ptr, ptr %3, align 8, !tbaa !33
  %18 = getelementptr inbounds nuw %struct.T42_FaceRec_, ptr %17, i32 0, i32 0
  %19 = getelementptr inbounds nuw %struct.FT_FaceRec_, ptr %18, i32 0, i32 25
  %20 = load ptr, ptr %19, align 8, !tbaa !140
  store ptr %20, ptr %6, align 8, !tbaa !141
  %21 = load ptr, ptr %3, align 8, !tbaa !33
  %22 = getelementptr inbounds nuw %struct.T42_FaceRec_, ptr %21, i32 0, i32 6
  %23 = load ptr, ptr %22, align 8, !tbaa !39
  %24 = icmp ne ptr %23, null
  br i1 %24, label %25, label %30

25:                                               ; preds = %12
  %26 = load ptr, ptr %3, align 8, !tbaa !33
  %27 = getelementptr inbounds nuw %struct.T42_FaceRec_, ptr %26, i32 0, i32 6
  %28 = load ptr, ptr %27, align 8, !tbaa !39
  %29 = call i32 @FT_Done_Face(ptr noundef %28)
  br label %30

30:                                               ; preds = %25, %12
  br label %31

31:                                               ; preds = %30
  %32 = load ptr, ptr %6, align 8, !tbaa !141
  %33 = load ptr, ptr %5, align 8, !tbaa !37
  %34 = getelementptr inbounds nuw %struct.PS_FontInfoRec_, ptr %33, i32 0, i32 0
  %35 = load ptr, ptr %34, align 8, !tbaa !142
  call void @ft_mem_free(ptr noundef %32, ptr noundef %35)
  %36 = load ptr, ptr %5, align 8, !tbaa !37
  %37 = getelementptr inbounds nuw %struct.PS_FontInfoRec_, ptr %36, i32 0, i32 0
  store ptr null, ptr %37, align 8, !tbaa !142
  br label %38

38:                                               ; preds = %31
  br label %39

39:                                               ; preds = %38
  br label %40

40:                                               ; preds = %39
  %41 = load ptr, ptr %6, align 8, !tbaa !141
  %42 = load ptr, ptr %5, align 8, !tbaa !37
  %43 = getelementptr inbounds nuw %struct.PS_FontInfoRec_, ptr %42, i32 0, i32 1
  %44 = load ptr, ptr %43, align 8, !tbaa !143
  call void @ft_mem_free(ptr noundef %41, ptr noundef %44)
  %45 = load ptr, ptr %5, align 8, !tbaa !37
  %46 = getelementptr inbounds nuw %struct.PS_FontInfoRec_, ptr %45, i32 0, i32 1
  store ptr null, ptr %46, align 8, !tbaa !143
  br label %47

47:                                               ; preds = %40
  br label %48

48:                                               ; preds = %47
  br label %49

49:                                               ; preds = %48
  %50 = load ptr, ptr %6, align 8, !tbaa !141
  %51 = load ptr, ptr %5, align 8, !tbaa !37
  %52 = getelementptr inbounds nuw %struct.PS_FontInfoRec_, ptr %51, i32 0, i32 2
  %53 = load ptr, ptr %52, align 8, !tbaa !88
  call void @ft_mem_free(ptr noundef %50, ptr noundef %53)
  %54 = load ptr, ptr %5, align 8, !tbaa !37
  %55 = getelementptr inbounds nuw %struct.PS_FontInfoRec_, ptr %54, i32 0, i32 2
  store ptr null, ptr %55, align 8, !tbaa !88
  br label %56

56:                                               ; preds = %49
  br label %57

57:                                               ; preds = %56
  br label %58

58:                                               ; preds = %57
  %59 = load ptr, ptr %6, align 8, !tbaa !141
  %60 = load ptr, ptr %5, align 8, !tbaa !37
  %61 = getelementptr inbounds nuw %struct.PS_FontInfoRec_, ptr %60, i32 0, i32 3
  %62 = load ptr, ptr %61, align 8, !tbaa !85
  call void @ft_mem_free(ptr noundef %59, ptr noundef %62)
  %63 = load ptr, ptr %5, align 8, !tbaa !37
  %64 = getelementptr inbounds nuw %struct.PS_FontInfoRec_, ptr %63, i32 0, i32 3
  store ptr null, ptr %64, align 8, !tbaa !85
  br label %65

65:                                               ; preds = %58
  br label %66

66:                                               ; preds = %65
  br label %67

67:                                               ; preds = %66
  %68 = load ptr, ptr %6, align 8, !tbaa !141
  %69 = load ptr, ptr %5, align 8, !tbaa !37
  %70 = getelementptr inbounds nuw %struct.PS_FontInfoRec_, ptr %69, i32 0, i32 4
  %71 = load ptr, ptr %70, align 8, !tbaa !144
  call void @ft_mem_free(ptr noundef %68, ptr noundef %71)
  %72 = load ptr, ptr %5, align 8, !tbaa !37
  %73 = getelementptr inbounds nuw %struct.PS_FontInfoRec_, ptr %72, i32 0, i32 4
  store ptr null, ptr %73, align 8, !tbaa !144
  br label %74

74:                                               ; preds = %67
  br label %75

75:                                               ; preds = %74
  br label %76

76:                                               ; preds = %75
  %77 = load ptr, ptr %6, align 8, !tbaa !141
  %78 = load ptr, ptr %4, align 8, !tbaa !35
  %79 = getelementptr inbounds nuw %struct.T1_FontRec_, ptr %78, i32 0, i32 16
  %80 = load ptr, ptr %79, align 8, !tbaa !145
  call void @ft_mem_free(ptr noundef %77, ptr noundef %80)
  %81 = load ptr, ptr %4, align 8, !tbaa !35
  %82 = getelementptr inbounds nuw %struct.T1_FontRec_, ptr %81, i32 0, i32 16
  store ptr null, ptr %82, align 8, !tbaa !145
  br label %83

83:                                               ; preds = %76
  br label %84

84:                                               ; preds = %83
  br label %85

85:                                               ; preds = %84
  %86 = load ptr, ptr %6, align 8, !tbaa !141
  %87 = load ptr, ptr %4, align 8, !tbaa !35
  %88 = getelementptr inbounds nuw %struct.T1_FontRec_, ptr %87, i32 0, i32 15
  %89 = load ptr, ptr %88, align 8, !tbaa !146
  call void @ft_mem_free(ptr noundef %86, ptr noundef %89)
  %90 = load ptr, ptr %4, align 8, !tbaa !35
  %91 = getelementptr inbounds nuw %struct.T1_FontRec_, ptr %90, i32 0, i32 15
  store ptr null, ptr %91, align 8, !tbaa !146
  br label %92

92:                                               ; preds = %85
  br label %93

93:                                               ; preds = %92
  br label %94

94:                                               ; preds = %93
  %95 = load ptr, ptr %6, align 8, !tbaa !141
  %96 = load ptr, ptr %4, align 8, !tbaa !35
  %97 = getelementptr inbounds nuw %struct.T1_FontRec_, ptr %96, i32 0, i32 14
  %98 = load ptr, ptr %97, align 8, !tbaa !147
  call void @ft_mem_free(ptr noundef %95, ptr noundef %98)
  %99 = load ptr, ptr %4, align 8, !tbaa !35
  %100 = getelementptr inbounds nuw %struct.T1_FontRec_, ptr %99, i32 0, i32 14
  store ptr null, ptr %100, align 8, !tbaa !147
  br label %101

101:                                              ; preds = %94
  br label %102

102:                                              ; preds = %101
  br label %103

103:                                              ; preds = %102
  %104 = load ptr, ptr %6, align 8, !tbaa !141
  %105 = load ptr, ptr %4, align 8, !tbaa !35
  %106 = getelementptr inbounds nuw %struct.T1_FontRec_, ptr %105, i32 0, i32 7
  %107 = load ptr, ptr %106, align 8, !tbaa !148
  call void @ft_mem_free(ptr noundef %104, ptr noundef %107)
  %108 = load ptr, ptr %4, align 8, !tbaa !35
  %109 = getelementptr inbounds nuw %struct.T1_FontRec_, ptr %108, i32 0, i32 7
  store ptr null, ptr %109, align 8, !tbaa !148
  br label %110

110:                                              ; preds = %103
  br label %111

111:                                              ; preds = %110
  br label %112

112:                                              ; preds = %111
  %113 = load ptr, ptr %6, align 8, !tbaa !141
  %114 = load ptr, ptr %4, align 8, !tbaa !35
  %115 = getelementptr inbounds nuw %struct.T1_FontRec_, ptr %114, i32 0, i32 8
  %116 = load ptr, ptr %115, align 8, !tbaa !149
  call void @ft_mem_free(ptr noundef %113, ptr noundef %116)
  %117 = load ptr, ptr %4, align 8, !tbaa !35
  %118 = getelementptr inbounds nuw %struct.T1_FontRec_, ptr %117, i32 0, i32 8
  store ptr null, ptr %118, align 8, !tbaa !149
  br label %119

119:                                              ; preds = %112
  br label %120

120:                                              ; preds = %119
  br label %121

121:                                              ; preds = %120
  %122 = load ptr, ptr %6, align 8, !tbaa !141
  %123 = load ptr, ptr %4, align 8, !tbaa !35
  %124 = getelementptr inbounds nuw %struct.T1_FontRec_, ptr %123, i32 0, i32 5
  %125 = getelementptr inbounds nuw %struct.T1_EncodingRecRec_, ptr %124, i32 0, i32 3
  %126 = load ptr, ptr %125, align 8, !tbaa !150
  call void @ft_mem_free(ptr noundef %122, ptr noundef %126)
  %127 = load ptr, ptr %4, align 8, !tbaa !35
  %128 = getelementptr inbounds nuw %struct.T1_FontRec_, ptr %127, i32 0, i32 5
  %129 = getelementptr inbounds nuw %struct.T1_EncodingRecRec_, ptr %128, i32 0, i32 3
  store ptr null, ptr %129, align 8, !tbaa !150
  br label %130

130:                                              ; preds = %121
  br label %131

131:                                              ; preds = %130
  br label %132

132:                                              ; preds = %131
  %133 = load ptr, ptr %6, align 8, !tbaa !141
  %134 = load ptr, ptr %4, align 8, !tbaa !35
  %135 = getelementptr inbounds nuw %struct.T1_FontRec_, ptr %134, i32 0, i32 5
  %136 = getelementptr inbounds nuw %struct.T1_EncodingRecRec_, ptr %135, i32 0, i32 4
  %137 = load ptr, ptr %136, align 8, !tbaa !151
  call void @ft_mem_free(ptr noundef %133, ptr noundef %137)
  %138 = load ptr, ptr %4, align 8, !tbaa !35
  %139 = getelementptr inbounds nuw %struct.T1_FontRec_, ptr %138, i32 0, i32 5
  %140 = getelementptr inbounds nuw %struct.T1_EncodingRecRec_, ptr %139, i32 0, i32 4
  store ptr null, ptr %140, align 8, !tbaa !151
  br label %141

141:                                              ; preds = %132
  br label %142

142:                                              ; preds = %141
  br label %143

143:                                              ; preds = %142
  %144 = load ptr, ptr %6, align 8, !tbaa !141
  %145 = load ptr, ptr %4, align 8, !tbaa !35
  %146 = getelementptr inbounds nuw %struct.T1_FontRec_, ptr %145, i32 0, i32 3
  %147 = load ptr, ptr %146, align 8, !tbaa !92
  call void @ft_mem_free(ptr noundef %144, ptr noundef %147)
  %148 = load ptr, ptr %4, align 8, !tbaa !35
  %149 = getelementptr inbounds nuw %struct.T1_FontRec_, ptr %148, i32 0, i32 3
  store ptr null, ptr %149, align 8, !tbaa !92
  br label %150

150:                                              ; preds = %143
  br label %151

151:                                              ; preds = %150
  br label %152

152:                                              ; preds = %151
  %153 = load ptr, ptr %6, align 8, !tbaa !141
  %154 = load ptr, ptr %3, align 8, !tbaa !33
  %155 = getelementptr inbounds nuw %struct.T42_FaceRec_, ptr %154, i32 0, i32 4
  %156 = load ptr, ptr %155, align 8, !tbaa !98
  call void @ft_mem_free(ptr noundef %153, ptr noundef %156)
  %157 = load ptr, ptr %3, align 8, !tbaa !33
  %158 = getelementptr inbounds nuw %struct.T42_FaceRec_, ptr %157, i32 0, i32 4
  store ptr null, ptr %158, align 8, !tbaa !98
  br label %159

159:                                              ; preds = %152
  br label %160

160:                                              ; preds = %159
  br label %161

161:                                              ; preds = %160
  %162 = load ptr, ptr %6, align 8, !tbaa !141
  %163 = load ptr, ptr %3, align 8, !tbaa !33
  %164 = getelementptr inbounds nuw %struct.T42_FaceRec_, ptr %163, i32 0, i32 9
  %165 = getelementptr inbounds nuw %struct.PS_UnicodesRec_, ptr %164, i32 0, i32 2
  %166 = load ptr, ptr %165, align 8, !tbaa !152
  call void @ft_mem_free(ptr noundef %162, ptr noundef %166)
  %167 = load ptr, ptr %3, align 8, !tbaa !33
  %168 = getelementptr inbounds nuw %struct.T42_FaceRec_, ptr %167, i32 0, i32 9
  %169 = getelementptr inbounds nuw %struct.PS_UnicodesRec_, ptr %168, i32 0, i32 2
  store ptr null, ptr %169, align 8, !tbaa !152
  br label %170

170:                                              ; preds = %161
  br label %171

171:                                              ; preds = %170
  %172 = load ptr, ptr %3, align 8, !tbaa !33
  %173 = getelementptr inbounds nuw %struct.T42_FaceRec_, ptr %172, i32 0, i32 9
  %174 = getelementptr inbounds nuw %struct.PS_UnicodesRec_, ptr %173, i32 0, i32 1
  store i32 0, ptr %174, align 8, !tbaa !153
  %175 = load ptr, ptr %3, align 8, !tbaa !33
  %176 = getelementptr inbounds nuw %struct.T42_FaceRec_, ptr %175, i32 0, i32 0
  %177 = getelementptr inbounds nuw %struct.FT_FaceRec_, ptr %176, i32 0, i32 5
  store ptr null, ptr %177, align 8, !tbaa !154
  %178 = load ptr, ptr %3, align 8, !tbaa !33
  %179 = getelementptr inbounds nuw %struct.T42_FaceRec_, ptr %178, i32 0, i32 0
  %180 = getelementptr inbounds nuw %struct.FT_FaceRec_, ptr %179, i32 0, i32 6
  store ptr null, ptr %180, align 8, !tbaa !155
  store i32 0, ptr %7, align 4
  br label %181

181:                                              ; preds = %171, %11
  call void @llvm.lifetime.end.p0(i64 8, ptr %6) #7
  call void @llvm.lifetime.end.p0(i64 8, ptr %5) #7
  call void @llvm.lifetime.end.p0(i64 8, ptr %4) #7
  call void @llvm.lifetime.end.p0(i64 8, ptr %3) #7
  %182 = load i32, ptr %7, align 4
  switch i32 %182, label %184 [
    i32 0, label %183
    i32 1, label %183
  ]

183:                                              ; preds = %181, %181
  ret void

184:                                              ; preds = %181
  unreachable
}