; Function Attrs: nounwind uwtable
define internal void @T42_Face_Done(ptr noundef %0) #0 {
  %.not = icmp eq ptr %0, null
  br i1 %.not, label %42, label %2

2:                                                ; preds = %1
  %3 = getelementptr inbounds nuw i8, ptr %0, i64 248
  %4 = getelementptr inbounds nuw i8, ptr %0, i64 184
  %5 = load ptr, ptr %4, align 8, !tbaa !58
  %6 = getelementptr inbounds nuw i8, ptr %0, i64 808
  %7 = load ptr, ptr %6, align 8, !tbaa !19
  %.not56 = icmp eq ptr %7, null
  br i1 %.not56, label %10, label %8

8:                                                ; preds = %2
  %9 = tail call i32 @FT_Done_Face(ptr noundef nonnull %7) #13
  br label %10

10:                                               ; preds = %2, %8
  %11 = load ptr, ptr %3, align 8, !tbaa !190
  tail call void @ft_mem_free(ptr noundef %5, ptr noundef %11) #13
  store ptr null, ptr %3, align 8, !tbaa !190
  %12 = getelementptr inbounds nuw i8, ptr %0, i64 256
  %13 = load ptr, ptr %12, align 8, !tbaa !191
  tail call void @ft_mem_free(ptr noundef %5, ptr noundef %13) #13
  store ptr null, ptr %12, align 8, !tbaa !191
  %14 = getelementptr inbounds nuw i8, ptr %0, i64 264
  %15 = load ptr, ptr %14, align 8, !tbaa !152
  tail call void @ft_mem_free(ptr noundef %5, ptr noundef %15) #13
  store ptr null, ptr %14, align 8, !tbaa !152
  %16 = getelementptr inbounds nuw i8, ptr %0, i64 272
  %17 = load ptr, ptr %16, align 8, !tbaa !149
  tail call void @ft_mem_free(ptr noundef %5, ptr noundef %17) #13
  store ptr null, ptr %16, align 8, !tbaa !149
  %18 = getelementptr inbounds nuw i8, ptr %0, i64 280
  %19 = load ptr, ptr %18, align 8, !tbaa !192
  tail call void @ft_mem_free(ptr noundef %5, ptr noundef %19) #13
  store ptr null, ptr %18, align 8, !tbaa !192
  %20 = getelementptr inbounds nuw i8, ptr %0, i64 664
  %21 = load ptr, ptr %20, align 8, !tbaa !119
  tail call void @ft_mem_free(ptr noundef %5, ptr noundef %21) #13
  store ptr null, ptr %20, align 8, !tbaa !119
  %22 = getelementptr inbounds nuw i8, ptr %0, i64 656
  %23 = load ptr, ptr %22, align 8, !tbaa !117
  tail call void @ft_mem_free(ptr noundef %5, ptr noundef %23) #13
  store ptr null, ptr %22, align 8, !tbaa !117
  %24 = getelementptr inbounds nuw i8, ptr %0, i64 648
  %25 = load ptr, ptr %24, align 8, !tbaa !123
  tail call void @ft_mem_free(ptr noundef %5, ptr noundef %25) #13
  store ptr null, ptr %24, align 8, !tbaa !123
  %26 = getelementptr inbounds nuw i8, ptr %0, i64 592
  %27 = load ptr, ptr %26, align 8, !tbaa !115
  tail call void @ft_mem_free(ptr noundef %5, ptr noundef %27) #13
  store ptr null, ptr %26, align 8, !tbaa !115
  %28 = getelementptr inbounds nuw i8, ptr %0, i64 600
  %29 = load ptr, ptr %28, align 8, !tbaa !121
  tail call void @ft_mem_free(ptr noundef %5, ptr noundef %29) #13
  store ptr null, ptr %28, align 8, !tbaa !121
  %30 = getelementptr inbounds nuw i8, ptr %0, i64 568
  %31 = load ptr, ptr %30, align 8, !tbaa !127
  tail call void @ft_mem_free(ptr noundef %5, ptr noundef %31) #13
  store ptr null, ptr %30, align 8, !tbaa !127
  %32 = getelementptr inbounds nuw i8, ptr %0, i64 576
  %33 = load ptr, ptr %32, align 8, !tbaa !128
  tail call void @ft_mem_free(ptr noundef %5, ptr noundef %33) #13
  store ptr null, ptr %32, align 8, !tbaa !128
  %34 = getelementptr inbounds nuw i8, ptr %0, i64 536
  %35 = load ptr, ptr %34, align 8, !tbaa !154
  tail call void @ft_mem_free(ptr noundef %5, ptr noundef %35) #13
  store ptr null, ptr %34, align 8, !tbaa !154
  %36 = getelementptr inbounds nuw i8, ptr %0, i64 792
  %37 = load ptr, ptr %36, align 8, !tbaa !143
  tail call void @ft_mem_free(ptr noundef %5, ptr noundef %37) #13
  store ptr null, ptr %36, align 8, !tbaa !143
  %38 = getelementptr inbounds nuw i8, ptr %0, i64 896
  %39 = load ptr, ptr %38, align 8, !tbaa !193
  tail call void @ft_mem_free(ptr noundef %5, ptr noundef %39) #13
  store ptr null, ptr %38, align 8, !tbaa !193
  %40 = getelementptr inbounds nuw i8, ptr %0, i64 888
  store i32 0, ptr %40, align 8, !tbaa !194
  %41 = getelementptr inbounds nuw i8, ptr %0, i64 40
  tail call void @llvm.memset.p0.i64(ptr noundef nonnull align 8 dereferenceable(16) %41, i8 0, i64 16, i1 false)
  br label %42

42:                                               ; preds = %1, %10
  ret void
}